; Function Attrs: nofree norecurse nosync nounwind memory(argmem: read) uwtable
define internal i32 @sse8_c(ptr readnone captures(none) %0, ptr noundef readonly captures(none) %1, ptr noundef readonly captures(none) %2, i64 noundef %3, i32 noundef %4) #5 {
  %6 = icmp sgt i32 %4, 0
  br i1 %6, label %.lr.ph, label %._crit_edge

.lr.ph:                                           ; preds = %5, %.lr.ph
  %.045 = phi ptr [ %85, %.lr.ph ], [ %1, %5 ]
  %.03944 = phi i32 [ %87, %.lr.ph ], [ 0, %5 ]
  %.04043 = phi i32 [ %84, %.lr.ph ], [ 0, %5 ]
  %.04142 = phi ptr [ %86, %.lr.ph ], [ %2, %5 ]
  %7 = load i8, ptr %.045, align 1, !tbaa !20
  %8 = zext i8 %7 to i64
  %9 = load i8, ptr %.04142, align 1, !tbaa !20
  %10 = zext i8 %9 to i64
  %11 = sub nsw i64 %8, %10
  %12 = getelementptr inbounds i32, ptr getelementptr inbounds nuw (i8, ptr @ff_square_tab, i64 1024), i64 %11
  %13 = load i32, ptr %12, align 4, !tbaa !29
  %14 = add i32 %13, %.04043
  %15 = getelementptr inbounds nuw i8, ptr %.045, i64 1
  %16 = load i8, ptr %15, align 1, !tbaa !20
  %17 = zext i8 %16 to i64
  %18 = getelementptr inbounds nuw i8, ptr %.04142, i64 1
  %19 = load i8, ptr %18, align 1, !tbaa !20
  %20 = zext i8 %19 to i64
  %21 = sub nsw i64 %17, %20
  %22 = getelementptr inbounds i32, ptr getelementptr inbounds nuw (i8, ptr @ff_square_tab, i64 1024), i64 %21
  %23 = load i32, ptr %22, align 4, !tbaa !29
  %24 = add i32 %14, %23
  %25 = getelementptr inbounds nuw i8, ptr %.045, i64 2
  %26 = load i8, ptr %25, align 1, !tbaa !20
  %27 = zext i8 %26 to i64
  %28 = getelementptr inbounds nuw i8, ptr %.04142, i64 2
  %29 = load i8, ptr %28, align 1, !tbaa !20
  %30 = zext i8 %29 to i64
  %31 = sub nsw i64 %27, %30
  %32 = getelementptr inbounds i32, ptr getelementptr inbounds nuw (i8, ptr @ff_square_tab, i64 1024), i64 %31
  %33 = load i32, ptr %32, align 4, !tbaa !29
  %34 = add i32 %24, %33
  %35 = getelementptr inbounds nuw i8, ptr %.045, i64 3
  %36 = load i8, ptr %35, align 1, !tbaa !20
  %37 = zext i8 %36 to i64
  %38 = getelementptr inbounds nuw i8, ptr %.04142, i64 3
  %39 = load i8, ptr %38, align 1, !tbaa !20
  %40 = zext i8 %39 to i64
  %41 = sub nsw i64 %37, %40
  %42 = getelementptr inbounds i32, ptr getelementptr inbounds nuw (i8, ptr @ff_square_tab, i64 1024), i64 %41
  %43 = load i32, ptr %42, align 4, !tbaa !29
  %44 = add i32 %34, %43
  %45 = getelementptr inbounds nuw i8, ptr %.045, i64 4
  %46 = load i8, ptr %45, align 1, !tbaa !20
  %47 = zext i8 %46 to i64
  %48 = getelementptr inbounds nuw i8, ptr %.04142, i64 4
  %49 = load i8, ptr %48, align 1, !tbaa !20
  %50 = zext i8 %49 to i64
  %51 = sub nsw i64 %47, %50
  %52 = getelementptr inbounds i32, ptr getelementptr inbounds nuw (i8, ptr @ff_square_tab, i64 1024), i64 %51
  %53 = load i32, ptr %52, align 4, !tbaa !29
  %54 = add i32 %44, %53
  %55 = getelementptr inbounds nuw i8, ptr %.045, i64 5
  %56 = load i8, ptr %55, align 1, !tbaa !20
  %57 = zext i8 %56 to i64
  %58 = getelementptr inbounds nuw i8, ptr %.04142, i64 5
  %59 = load i8, ptr %58, align 1, !tbaa !20
  %60 = zext i8 %59 to i64
  %61 = sub nsw i64 %57, %60
  %62 = getelementptr inbounds i32, ptr getelementptr inbounds nuw (i8, ptr @ff_square_tab, i64 1024), i64 %61
  %63 = load i32, ptr %62, align 4, !tbaa !29
  %64 = add i32 %54, %63
  %65 = getelementptr inbounds nuw i8, ptr %.045, i64 6
  %66 = load i8, ptr %65, align 1, !tbaa !20
  %67 = zext i8 %66 to i64
  %68 = getelementptr inbounds nuw i8, ptr %.04142, i64 6
  %69 = load i8, ptr %68, align 1, !tbaa !20
  %70 = zext i8 %69 to i64
  %71 = sub nsw i64 %67, %70
  %72 = getelementptr inbounds i32, ptr getelementptr inbounds nuw (i8, ptr @ff_square_tab, i64 1024), i64 %71
  %73 = load i32, ptr %72, align 4, !tbaa !29
  %74 = add i32 %64, %73
  %75 = getelementptr inbounds nuw i8, ptr %.045, i64 7
  %76 = load i8, ptr %75, align 1, !tbaa !20
  %77 = zext i8 %76 to i64
  %78 = getelementptr inbounds nuw i8, ptr %.04142, i64 7
  %79 = load i8, ptr %78, align 1, !tbaa !20
  %80 = zext i8 %79 to i64
  %81 = sub nsw i64 %77, %80
  %82 = getelementptr inbounds i32, ptr getelementptr inbounds nuw (i8, ptr @ff_square_tab, i64 1024), i64 %81
  %83 = load i32, ptr %82, align 4, !tbaa !29
  %84 = add i32 %74, %83
  %85 = getelementptr inbounds i8, ptr %.045, i64 %3
  %86 = getelementptr inbounds i8, ptr %.04142, i64 %3
  %87 = add nuw nsw i32 %.03944, 1
  %exitcond.not = icmp eq i32 %87, %4
  br i1 %exitcond.not, label %._crit_edge, label %.lr.ph, !llvm.loop !75

._crit_edge:                                      ; preds = %.lr.ph, %5
  %.040.lcssa = phi i32 [ 0, %5 ], [ %84, %.lr.ph ]
  ret i32 %.040.lcssa
}